target datalayout = "e-m:e-p270:32:32-p271:32:32-p272:64:64-i64:64-i128:128-f80:128-n8:16:32:64-S128"
target triple = "x86_64-pc-linux-gnu"

%struct.ResourceElem = type { i64, ptr }
%struct.ResourceOwnerDesc = type { ptr, i32, i32, ptr, ptr }

; Function Attrs: inlinehint nounwind uwtable
define internal i32 @pg_cmp_u32(i32 noundef %0, i32 noundef %1) #5 {
  %3 = alloca i32, align 4
  %4 = alloca i32, align 4
  store i32 %0, ptr %3, align 4
  store i32 %1, ptr %4, align 4
  %5 = load i32, ptr %3, align 4
  %6 = load i32, ptr %4, align 4
  %7 = icmp ugt i32 %5, %6
  %8 = zext i1 %7 to i32
  %9 = load i32, ptr %3, align 4
  %10 = load i32, ptr %4, align 4
  %11 = icmp ult i32 %9, %10
  %12 = zext i1 %11 to i32
  %13 = sub i32 %8, %12
  ret i32 %13
}

; Function Attrs: nounwind uwtable
define internal i32 @resource_priority_cmp(ptr noundef %0, ptr noundef %1) #0 {
  %3 = alloca i32, align 4
  %4 = alloca ptr, align 8
  %5 = alloca ptr, align 8
  %6 = alloca ptr, align 8
  %7 = alloca ptr, align 8
  %8 = alloca i32, align 4
  store ptr %0, ptr %4, align 8
  store ptr %1, ptr %5, align 8
  call void @llvm.lifetime.start.p0(i64 8, ptr %6) #6
  %9 = load ptr, ptr %4, align 8
  store ptr %9, ptr %6, align 8
  call void @llvm.lifetime.start.p0(i64 8, ptr %7) #6
  %10 = load ptr, ptr %5, align 8
  store ptr %10, ptr %7, align 8
  %11 = load ptr, ptr %6, align 8
  %12 = getelementptr inbounds nuw %struct.ResourceElem, ptr %11, i32 0, i32 1
  %13 = load ptr, ptr %12, align 8
  %14 = getelementptr inbounds nuw %struct.ResourceOwnerDesc, ptr %13, i32 0, i32 1
  %15 = load i32, ptr %14, align 8
  %16 = load ptr, ptr %7, align 8
  %17 = getelementptr inbounds nuw %struct.ResourceElem, ptr %16, i32 0, i32 1
  %18 = load ptr, ptr %17, align 8
  %19 = getelementptr inbounds nuw %struct.ResourceOwnerDesc, ptr %18, i32 0, i32 1
  %20 = load i32, ptr %19, align 8
  %21 = icmp eq i32 %15, %20
  br i1 %21, label %22, label %34

22:                                               ; preds = %2
  %23 = load ptr, ptr %7, align 8
  %24 = getelementptr inbounds nuw %struct.ResourceElem, ptr %23, i32 0, i32 1
  %25 = load ptr, ptr %24, align 8
  %26 = getelementptr inbounds nuw %struct.ResourceOwnerDesc, ptr %25, i32 0, i32 2
  %27 = load i32, ptr %26, align 4
  %28 = load ptr, ptr %6, align 8
  %29 = getelementptr inbounds nuw %struct.ResourceElem, ptr %28, i32 0, i32 1
  %30 = load ptr, ptr %29, align 8
  %31 = getelementptr inbounds nuw %struct.ResourceOwnerDesc, ptr %30, i32 0, i32 2
  %32 = load i32, ptr %31, align 4
  %33 = call i32 @pg_cmp_u32(i32 noundef %27, i32 noundef %32)
  store i32 %33, ptr %3, align 4
  store i32 1, ptr %8, align 4
  br label %48

34:                                               ; preds = %2
  %35 = load ptr, ptr %6, align 8
  %36 = getelementptr inbounds nuw %struct.ResourceElem, ptr %35, i32 0, i32 1
  %37 = load ptr, ptr %36, align 8
  %38 = getelementptr inbounds nuw %struct.ResourceOwnerDesc, ptr %37, i32 0, i32 1
  %39 = load i32, ptr %38, align 8
  %40 = load ptr, ptr %7, align 8
  %41 = getelementptr inbounds nuw %struct.ResourceElem, ptr %40, i32 0, i32 1
  %42 = load ptr, ptr %41, align 8
  %43 = getelementptr inbounds nuw %struct.ResourceOwnerDesc, ptr %42, i32 0, i32 1
  %44 = load i32, ptr %43, align 8
  %45 = icmp ugt i32 %39, %44
  br i1 %45, label %46, label %47

46:                                               ; preds = %34
  store i32 -1, ptr %3, align 4
  store i32 1, ptr %8, align 4
  br label %48

47:                                               ; preds = %34
  store i32 1, ptr %3, align 4
  store i32 1, ptr %8, align 4
  br label %48

48:                                               ; preds = %47, %46, %22
  call void @llvm.lifetime.end.p0(i64 8, ptr %7) #6
  call void @llvm.lifetime.end.p0(i64 8, ptr %6) #6
  %49 = load i32, ptr %3, align 4
  ret i32 %49
}