; Function Attrs: mustprogress nofree norecurse nosync nounwind willreturn memory(read, inaccessiblemem: none) uwtable
define internal range(i32 -1, 2) i32 @resource_priority_cmp(ptr noundef readonly captures(none) %0, ptr noundef readonly captures(none) %1) #7 {
  %3 = getelementptr inbounds nuw i8, ptr %0, i64 8
  %4 = load ptr, ptr %3, align 8
  %5 = getelementptr inbounds nuw i8, ptr %4, i64 8
  %6 = load i32, ptr %5, align 8
  %7 = getelementptr inbounds nuw i8, ptr %1, i64 8
  %8 = load ptr, ptr %7, align 8
  %9 = getelementptr inbounds nuw i8, ptr %8, i64 8
  %10 = load i32, ptr %9, align 8
  %11 = icmp eq i32 %6, %10
  br i1 %11, label %12, label %18

12:                                               ; preds = %2
  %13 = getelementptr inbounds nuw i8, ptr %8, i64 12
  %14 = load i32, ptr %13, align 4
  %15 = getelementptr inbounds nuw i8, ptr %4, i64 12
  %16 = load i32, ptr %15, align 4
  %17 = tail call range(i32 -1, 2) i32 @llvm.ucmp.i32.i32(i32 %14, i32 %16)
  br label %20

18:                                               ; preds = %2
  %19 = icmp ugt i32 %6, %10
  %. = select i1 %19, i32 -1, i32 1
  br label %20

20:                                               ; preds = %18, %12
  %.0 = phi i32 [ %17, %12 ], [ %., %18 ]
  ret i32 %.0
}